; Listing generated by Microsoft (R) Optimizing Compiler Version 19.33.31630.0 

	TITLE	d:\учеба\constructure of software\labs\spring semester\lab01, 03\lab01\lab01\release\counttheeventdata.obj
	.686P
	.XMM
	include listing.inc
	.model	flat

INCLUDELIB OLDNAMES

PUBLIC	??_C@_01GBGANLPD@0@				; `string'
PUBLIC	??_C@_0BI@OCKEHPFK@The?5date?5of?5the?5event?3?5@ ; `string'
EXTRN	__imp_??6?$basic_ostream@DU?$char_traits@D@std@@@std@@QAEAAV01@H@Z:PROC
EXTRN	__imp_??6?$basic_ostream@DU?$char_traits@D@std@@@std@@QAEAAV01@P6AAAV01@AAV01@@Z@Z:PROC
EXTRN	__imp_?put@?$basic_ostream@DU?$char_traits@D@std@@@std@@QAEAAV12@D@Z:PROC
EXTRN	__imp_?widen@?$basic_ios@DU?$char_traits@D@std@@@std@@QBEDD@Z:PROC
;	COMDAT ??_C@_0BI@OCKEHPFK@The?5date?5of?5the?5event?3?5@
CONST	SEGMENT
??_C@_0BI@OCKEHPFK@The?5date?5of?5the?5event?3?5@ DB 'The date of the eve'
	DB	'nt: ', 00H					; `string'
CONST	ENDS
;	COMDAT ??_C@_01GBGANLPD@0@
CONST	SEGMENT
??_C@_01GBGANLPD@0@ DB '0', 00H				; `string'
?_Fake_alloc@std@@3U_Fake_allocator@1@B	ORG $+1		; std::_Fake_alloc
PUBLIC	??$endl@DU?$char_traits@D@std@@@std@@YAAAV?$basic_ostream@DU?$char_traits@D@std@@@0@AAV10@@Z ; std::endl<char,std::char_traits<char> >
PUBLIC	?countTheEventDate@@YAHHQAHH@Z			; countTheEventDate
; Function compile flags: /Ogtp
;	COMDAT ?countTheEventDate@@YAHHQAHH@Z
_TEXT	SEGMENT
_year$ = 8						; size = 4
?countTheEventDate@@YAHHQAHH@Z PROC			; countTheEventDate, COMDAT
; _evetn_day$ = ecx
; _Months$ = edx
; File D:\Учеба\Constructure of Software\Labs\Spring semester\Lab01, 03\Lab01\Lab01\countTheEventData.cpp
; Line 5
	push	ebp
	mov	ebp, esp
	push	ecx
; Line 8
	mov	eax, DWORD PTR [edx]
	push	esi
	xor	esi, esi
	push	edi
	mov	edi, 1
	cmp	ecx, eax
	jge	SHORT $LN12@countTheEv
$LL4@countTheEv:
; Line 9
	sub	ecx, eax
	lea	esi, DWORD PTR [esi+1]
	mov	eax, DWORD PTR [edx+esi*4]
; Line 10
	inc	edi
	cmp	ecx, eax
	jl	SHORT $LL4@countTheEv
; Line 12
	cmp	edi, 10					; 0000000aH
	jl	SHORT $LN12@countTheEv
; Line 15
	push	OFFSET ??$endl@DU?$char_traits@D@std@@@std@@YAAAV?$basic_ostream@DU?$char_traits@D@std@@@0@AAV10@@Z ; std::endl<char,std::char_traits<char> >
	push	DWORD PTR _year$[ebp]
	mov	edx, OFFSET ??_C@_0BI@OCKEHPFK@The?5date?5of?5the?5event?3?5@
	push	edi
	push	ecx
	mov	ecx, DWORD PTR __imp_?cout@std@@3V?$basic_ostream@DU?$char_traits@D@std@@@1@A
	call	??$?6U?$char_traits@D@std@@@std@@YAAAV?$basic_ostream@DU?$char_traits@D@std@@@0@AAV10@PBD@Z ; std::operator<<<std::char_traits<char> >
	mov	ecx, eax
	call	DWORD PTR __imp_??6?$basic_ostream@DU?$char_traits@D@std@@@std@@QAEAAV01@H@Z
	jmp	SHORT $LN13@countTheEv
$LN12@countTheEv:
; Line 13
	push	OFFSET ??$endl@DU?$char_traits@D@std@@@std@@YAAAV?$basic_ostream@DU?$char_traits@D@std@@@0@AAV10@@Z ; std::endl<char,std::char_traits<char> >
	push	DWORD PTR _year$[ebp]
	mov	edx, OFFSET ??_C@_0BI@OCKEHPFK@The?5date?5of?5the?5event?3?5@
	push	edi
	push	ecx
	push	ecx
	mov	ecx, DWORD PTR __imp_?cout@std@@3V?$basic_ostream@DU?$char_traits@D@std@@@1@A
	call	??$?6U?$char_traits@D@std@@@std@@YAAAV?$basic_ostream@DU?$char_traits@D@std@@@0@AAV10@PBD@Z ; std::operator<<<std::char_traits<char> >
	add	esp, 4
	mov	ecx, eax
	call	DWORD PTR __imp_??6?$basic_ostream@DU?$char_traits@D@std@@@std@@QAEAAV01@H@Z
	push	ecx
	mov	edx, OFFSET ??_C@_01GBGANLPD@0@
	mov	ecx, eax
	call	??$?6U?$char_traits@D@std@@@std@@YAAAV?$basic_ostream@DU?$char_traits@D@std@@@0@AAV10@PBD@Z ; std::operator<<<std::char_traits<char> >
	add	esp, 4
$LN13@countTheEv:
; Line 17
	mov	ecx, eax
	call	DWORD PTR __imp_??6?$basic_ostream@DU?$char_traits@D@std@@@std@@QAEAAV01@H@Z
	mov	ecx, eax
	call	DWORD PTR __imp_??6?$basic_ostream@DU?$char_traits@D@std@@@std@@QAEAAV01@H@Z
	mov	ecx, eax
	call	DWORD PTR __imp_??6?$basic_ostream@DU?$char_traits@D@std@@@std@@QAEAAV01@P6AAAV01@AAV01@@Z@Z
	pop	edi
	xor	eax, eax
	pop	esi
	pop	ecx
	pop	ebp
	ret	0
?countTheEventDate@@YAHHQAHH@Z ENDP			; countTheEventDate
_TEXT	ENDS
; Function compile flags: /Ogtp
;	COMDAT ??$endl@DU?$char_traits@D@std@@@std@@YAAAV?$basic_ostream@DU?$char_traits@D@std@@@0@AAV10@@Z
_TEXT	SEGMENT
__Ostr$ = 8						; size = 4
??$endl@DU?$char_traits@D@std@@@std@@YAAAV?$basic_ostream@DU?$char_traits@D@std@@@0@AAV10@@Z PROC ; std::endl<char,std::char_traits<char> >, COMDAT
; File C:\Program Files\Microsoft Visual Studio\2022\Community\VC\Tools\MSVC\14.33.31629\include\ostream
; Line 1005
	push	ebp
	mov	ebp, esp
	push	esi
; Line 1006
	mov	esi, DWORD PTR __Ostr$[ebp]
	push	10					; 0000000aH
	mov	eax, DWORD PTR [esi]
	mov	ecx, DWORD PTR [eax+4]
	add	ecx, esi
	call	DWORD PTR __imp_?widen@?$basic_ios@DU?$char_traits@D@std@@@std@@QBEDD@Z
	movzx	ecx, al
	push	ecx
	mov	ecx, esi
	call	DWORD PTR __imp_?put@?$basic_ostream@DU?$char_traits@D@std@@@std@@QAEAAV12@D@Z
; Line 1007
	mov	ecx, esi
	call	DWORD PTR __imp_?flush@?$basic_ostream@DU?$char_traits@D@std@@@std@@QAEAAV12@XZ
; Line 1008
	mov	eax, esi
	pop	esi
; Line 1009
	pop	ebp
	ret	0
??$endl@DU?$char_traits@D@std@@@std@@YAAAV?$basic_ostream@DU?$char_traits@D@std@@@0@AAV10@@Z ENDP ; std::endl<char,std::char_traits<char> >
_TEXT	ENDS
END
