; Listing generated by Microsoft (R) Optimizing Compiler Version 19.33.31630.0 

	TITLE	d:\учеба\constructure of software\labs\spring semester\lab01, 03\lab01\lab01\release\lab01.obj
	.686P
	.XMM
	include listing.inc
	.model	flat

INCLUDELIB OLDNAMES

PUBLIC	??_C@_07PEAPJBGG@Russian@			; `string'
PUBLIC	??_C@_0CC@CAELOJHL@Enter?5the?5date?5in?5format?5?D?D?L?L?C?C@ ; `string'
PUBLIC	??_C@_0BC@PINGNCHI@This?5is?5Leap?5Year@	; `string'
PUBLIC	??_C@_0BG@LCGFPDHI@This?5is?5NOT?5Leap?5Year@	; `string'
PUBLIC	??_C@_0CN@JEJMBPMK@Sequence?5number?5of?5the?5day?5ente@ ; `string'
PUBLIC	??_C@_0CD@CBAABNC@Amount?5of?5days?5until?5my?5birthda@ ; `string'
PUBLIC	??_C@_0CE@CIKBPNOL@?6Enter?5the?5sequence?5number?5of?5d@ ; `string'
PUBLIC	??_C@_05DIAHPDGL@PAUSE@				; `string'
EXTRN	__imp__system:PROC
EXTRN	__imp__setlocale:PROC
;	COMDAT ??_C@_05DIAHPDGL@PAUSE@
CONST	SEGMENT
??_C@_05DIAHPDGL@PAUSE@ DB 'PAUSE', 00H			; `string'
CONST	ENDS
;	COMDAT ??_C@_0CE@CIKBPNOL@?6Enter?5the?5sequence?5number?5of?5d@
CONST	SEGMENT
??_C@_0CE@CIKBPNOL@?6Enter?5the?5sequence?5number?5of?5d@ DB 0aH, 'Enter '
	DB	'the sequence number of day: ', 00H		; `string'
CONST	ENDS
;	COMDAT ??_C@_0CD@CBAABNC@Amount?5of?5days?5until?5my?5birthda@
CONST	SEGMENT
??_C@_0CD@CBAABNC@Amount?5of?5days?5until?5my?5birthda@ DB 'Amount of day'
	DB	's until my birthday: ', 00H			; `string'
CONST	ENDS
;	COMDAT ??_C@_0CN@JEJMBPMK@Sequence?5number?5of?5the?5day?5ente@
CONST	SEGMENT
??_C@_0CN@JEJMBPMK@Sequence?5number?5of?5the?5day?5ente@ DB 'Sequence num'
	DB	'ber of the day entered in data: ', 00H	; `string'
CONST	ENDS
;	COMDAT ??_C@_0BG@LCGFPDHI@This?5is?5NOT?5Leap?5Year@
CONST	SEGMENT
??_C@_0BG@LCGFPDHI@This?5is?5NOT?5Leap?5Year@ DB 'This is NOT Leap Year', 00H ; `string'
CONST	ENDS
;	COMDAT ??_C@_0BC@PINGNCHI@This?5is?5Leap?5Year@
CONST	SEGMENT
??_C@_0BC@PINGNCHI@This?5is?5Leap?5Year@ DB 'This is Leap Year', 00H ; `string'
CONST	ENDS
;	COMDAT ??_C@_0CC@CAELOJHL@Enter?5the?5date?5in?5format?5?D?D?L?L?C?C@
CONST	SEGMENT
??_C@_0CC@CAELOJHL@Enter?5the?5date?5in?5format?5?D?D?L?L?C?C@ DB 'Enter '
	DB	'the date in format ', 0c4H, 0c4H, 0ccH, 0ccH, 0c3H, 0c3H, 0c3H
	DB	0c3H, 00H					; `string'
CONST	ENDS
;	COMDAT ??_C@_07PEAPJBGG@Russian@
CONST	SEGMENT
??_C@_07PEAPJBGG@Russian@ DB 'Russian', 00H		; `string'
?_Fake_alloc@std@@3U_Fake_allocator@1@B	ORG $+1		; std::_Fake_alloc
PUBLIC	_main
;	COMDAT xdata$x
xdata$x	SEGMENT
__ehfuncinfo$_main DD 019930522H
	DD	0cH
	DD	FLAT:__unwindtable$_main
	DD	2 DUP(00H)
	DD	2 DUP(00H)
	DD	00H
	DD	01H
	ORG $+4
__unwindtable$_main DD 0ffffffffH
	DD	FLAT:__unwindfunclet$_main$0
	DD	00H
	DD	FLAT:__unwindfunclet$_main$1
	DD	01H
	DD	FLAT:__unwindfunclet$_main$2
	DD	02H
	DD	FLAT:__unwindfunclet$_main$3
	DD	03H
	DD	FLAT:__unwindfunclet$_main$4
	DD	04H
	DD	FLAT:__unwindfunclet$_main$5
	DD	05H
	DD	FLAT:__unwindfunclet$_main$6
	DD	06H
	DD	FLAT:__unwindfunclet$_main$7
	DD	07H
	DD	FLAT:__unwindfunclet$_main$8
	DD	08H
	DD	FLAT:__unwindfunclet$_main$9
	DD	09H
	DD	FLAT:__unwindfunclet$_main$10
	DD	0ffffffffH
	DD	FLAT:__unwindfunclet$_main$12
; Function compile flags: /Ogtp
;	COMDAT _main
_TEXT	SEGMENT
_day$1$ = -368						; size = 4
_leap_flag$1$ = -364					; size = 4
_event_day$ = -360					; size = 4
_data$ = -356						; size = 4
_name_of_months$6 = -352				; size = 288
_Months$ = -64						; size = 48
__$ArrayPad$ = -16					; size = 4
__$EHRec$ = -12						; size = 12
_main	PROC						; COMDAT
; File D:\Учеба\Constructure of Software\Labs\Spring semester\Lab01, 03\Lab01\Lab01\Lab01.cpp
; Line 10
	push	ebp
	mov	ebp, esp
	push	-1
	push	__ehhandler$_main
	mov	eax, DWORD PTR fs:0
	push	eax
	sub	esp, 356				; 00000164H
	mov	eax, DWORD PTR ___security_cookie
	xor	eax, ebp
	mov	DWORD PTR __$ArrayPad$[ebp], eax
	push	ebx
	push	esi
	push	edi
	push	eax
	lea	eax, DWORD PTR __$EHRec$[ebp]
	mov	DWORD PTR fs:0, eax
; Line 11
	push	OFFSET ??_C@_07PEAPJBGG@Russian@
	push	2
	call	DWORD PTR __imp__setlocale
; Line 14
	movaps	xmm0, XMMWORD PTR __xmm@0000001e0000001f0000001c0000001f
	add	esp, 8
	movups	XMMWORD PTR _Months$[ebp], xmm0
; Line 15
	mov	edx, OFFSET ??_C@_0CC@CAELOJHL@Enter?5the?5date?5in?5format?5?D?D?L?L?C?C@
	movaps	xmm0, XMMWORD PTR __xmm@0000001f0000001f0000001e0000001f
	movups	XMMWORD PTR _Months$[ebp+16], xmm0
	push	OFFSET ??$endl@DU?$char_traits@D@std@@@std@@YAAAV?$basic_ostream@DU?$char_traits@D@std@@@0@AAV10@@Z ; std::endl<char,std::char_traits<char> >
	movaps	xmm0, XMMWORD PTR __xmm@0000001f0000001e0000001f0000001e
	push	ecx
	mov	ecx, DWORD PTR __imp_?cout@std@@3V?$basic_ostream@DU?$char_traits@D@std@@@1@A
	movups	XMMWORD PTR _Months$[ebp+32], xmm0
	call	??$?6U?$char_traits@D@std@@@std@@YAAAV?$basic_ostream@DU?$char_traits@D@std@@@0@AAV10@PBD@Z ; std::operator<<<std::char_traits<char> >
	add	esp, 4
	mov	ecx, eax
	call	DWORD PTR __imp_??6?$basic_ostream@DU?$char_traits@D@std@@@std@@QAEAAV01@P6AAAV01@AAV01@@Z@Z
; Line 16
	mov	ecx, DWORD PTR __imp_?cin@std@@3V?$basic_istream@DU?$char_traits@D@std@@@1@A
	lea	eax, DWORD PTR _data$[ebp]
	push	eax
	call	DWORD PTR __imp_??5?$basic_istream@DU?$char_traits@D@std@@@std@@QAEAAV01@AAH@Z
; Line 17
	mov	esi, DWORD PTR _data$[ebp]
	mov	eax, 1759218605				; 68db8badH
	imul	esi
	mov	edi, esi
	sar	edx, 12					; 0000000cH
	mov	eax, edx
	shr	eax, 31					; 0000001fH
	add	eax, edx
	imul	eax, eax, 10000
	sub	edi, eax
; Line 18
	mov	eax, 1125899907				; 431bde83H
	imul	esi
	mov	eax, 1759218605				; 68db8badH
	sar	edx, 18					; 00000012H
	mov	ebx, edx
	shr	ebx, 31					; 0000001fH
	add	ebx, edx
	mov	edx, esi
	imul	ecx, ebx, 1000000
	mov	DWORD PTR _day$1$[ebp], ebx
	sub	edx, ecx
	sub	edx, edi
	imul	edx
; Line 20
	mov	eax, edi
	sar	edx, 12					; 0000000cH
	mov	esi, edx
	shr	esi, 31					; 0000001fH
	add	esi, edx
	and	eax, -2147483645			; 80000003H
	jns	SHORT $LN47@main
	dec	eax
	or	eax, -4					; fffffffcH
	add	eax, 1
$LN47@main:
	jne	SHORT $LN5@main
	mov	eax, 1374389535				; 51eb851fH
	imul	edi
	sar	edx, 5
	mov	ecx, edx
	shr	ecx, 31					; 0000001fH
	add	ecx, edx
	mov	edx, edi
	imul	ecx, ecx, 100
	sub	edx, ecx
	jne	SHORT $LN4@main
$LN5@main:
	mov	eax, 1374389535				; 51eb851fH
	mov	ecx, edi
	imul	edi
	sar	edx, 7
	mov	eax, edx
	shr	eax, 31					; 0000001fH
	add	eax, edx
	imul	eax, eax, 400
	sub	ecx, eax
	jne	SHORT $LN2@main
$LN4@main:
; Line 22
	lea	eax, DWORD PTR _Months$[ebp]
	mov	DWORD PTR _leap_flag$1$[ebp], 1
	push	eax
	mov	eax, DWORD PTR _data$[ebp]
	mov	edx, esi
	push	eax
	push	1
	push	ecx
	mov	ecx, ebx
	mov	DWORD PTR _Months$[ebp+4], 29		; 0000001dH
	call	?checkIfCorrect@@YAHHHHHHQAH@Z		; checkIfCorrect
; Line 28
	mov	edx, OFFSET ??_C@_0BC@PINGNCHI@This?5is?5Leap?5Year@
	jmp	SHORT $LN48@main
$LN2@main:
; Line 25
	lea	eax, DWORD PTR _Months$[ebp]
	mov	DWORD PTR _leap_flag$1$[ebp], 0
	push	eax
	mov	eax, DWORD PTR _data$[ebp]
	mov	edx, esi
	push	eax
	push	0
	push	ecx
	mov	ecx, ebx
	call	?checkIfCorrect@@YAHHHHHHQAH@Z		; checkIfCorrect
; Line 29
	mov	edx, OFFSET ??_C@_0BG@LCGFPDHI@This?5is?5NOT?5Leap?5Year@
$LN48@main:
; File D:\Учеба\Constructure of Software\Labs\Spring semester\Lab01, 03\Lab01\Lab01\nameMonth.cpp
; Line 4
	add	esp, 16					; 00000010H
	push	OFFSET ??$endl@DU?$char_traits@D@std@@@std@@YAAAV?$basic_ostream@DU?$char_traits@D@std@@@0@AAV10@@Z ; std::endl<char,std::char_traits<char> >
	push	ecx
	mov	ecx, DWORD PTR __imp_?cout@std@@3V?$basic_ostream@DU?$char_traits@D@std@@@1@A
	call	??$?6U?$char_traits@D@std@@@std@@YAAAV?$basic_ostream@DU?$char_traits@D@std@@@0@AAV10@PBD@Z ; std::operator<<<std::char_traits<char> >
	add	esp, 4
	mov	ecx, eax
	call	DWORD PTR __imp_??6?$basic_ostream@DU?$char_traits@D@std@@@std@@QAEAAV01@P6AAAV01@AAV01@@Z@Z
	push	OFFSET ??_C@_07CGJPFGJA@January@
	lea	ecx, DWORD PTR _name_of_months$6[ebp]
	call	??0?$basic_string@DU?$char_traits@D@std@@V?$allocator@D@2@@std@@QAE@QBD@Z ; std::basic_string<char,std::char_traits<char>,std::allocator<char> >::basic_string<char,std::char_traits<char>,std::allocator<char> >
	push	OFFSET ??_C@_08GNJGEPFN@February@
	lea	ecx, DWORD PTR _name_of_months$6[ebp+24]
	mov	DWORD PTR __$EHRec$[ebp+8], 0
	call	??0?$basic_string@DU?$char_traits@D@std@@V?$allocator@D@2@@std@@QAE@QBD@Z ; std::basic_string<char,std::char_traits<char>,std::allocator<char> >::basic_string<char,std::char_traits<char>,std::allocator<char> >
	push	OFFSET ??_C@_05HPCKOFNC@March@
	lea	ecx, DWORD PTR _name_of_months$6[ebp+48]
	mov	BYTE PTR __$EHRec$[ebp+8], 1
	call	??0?$basic_string@DU?$char_traits@D@std@@V?$allocator@D@2@@std@@QAE@QBD@Z ; std::basic_string<char,std::char_traits<char>,std::allocator<char> >::basic_string<char,std::char_traits<char>,std::allocator<char> >
; Line 5
	push	OFFSET ??_C@_05DMJDNLEJ@April@
	lea	ecx, DWORD PTR _name_of_months$6[ebp+72]
	mov	BYTE PTR __$EHRec$[ebp+8], 2
	call	??0?$basic_string@DU?$char_traits@D@std@@V?$allocator@D@2@@std@@QAE@QBD@Z ; std::basic_string<char,std::char_traits<char>,std::allocator<char> >::basic_string<char,std::char_traits<char>,std::allocator<char> >
	push	OFFSET ??_C@_03CNMDKL@May@
	lea	ecx, DWORD PTR _name_of_months$6[ebp+96]
	mov	BYTE PTR __$EHRec$[ebp+8], 3
	call	??0?$basic_string@DU?$char_traits@D@std@@V?$allocator@D@2@@std@@QAE@QBD@Z ; std::basic_string<char,std::char_traits<char>,std::allocator<char> >::basic_string<char,std::char_traits<char>,std::allocator<char> >
	push	OFFSET ??_C@_04CNLMGBGM@June@
	lea	ecx, DWORD PTR _name_of_months$6[ebp+120]
	mov	BYTE PTR __$EHRec$[ebp+8], 4
	call	??0?$basic_string@DU?$char_traits@D@std@@V?$allocator@D@2@@std@@QAE@QBD@Z ; std::basic_string<char,std::char_traits<char>,std::allocator<char> >::basic_string<char,std::char_traits<char>,std::allocator<char> >
	push	OFFSET ??_C@_04MIEPOIFP@July@
	lea	ecx, DWORD PTR _name_of_months$6[ebp+144]
	mov	BYTE PTR __$EHRec$[ebp+8], 5
	call	??0?$basic_string@DU?$char_traits@D@std@@V?$allocator@D@2@@std@@QAE@QBD@Z ; std::basic_string<char,std::char_traits<char>,std::allocator<char> >::basic_string<char,std::char_traits<char>,std::allocator<char> >
	push	OFFSET ??_C@_06LBBHFDDG@August@
	lea	ecx, DWORD PTR _name_of_months$6[ebp+168]
	mov	BYTE PTR __$EHRec$[ebp+8], 6
	call	??0?$basic_string@DU?$char_traits@D@std@@V?$allocator@D@2@@std@@QAE@QBD@Z ; std::basic_string<char,std::char_traits<char>,std::allocator<char> >::basic_string<char,std::char_traits<char>,std::allocator<char> >
	push	OFFSET ??_C@_09BHHEALKD@September@
	lea	ecx, DWORD PTR _name_of_months$6[ebp+192]
	mov	BYTE PTR __$EHRec$[ebp+8], 7
	call	??0?$basic_string@DU?$char_traits@D@std@@V?$allocator@D@2@@std@@QAE@QBD@Z ; std::basic_string<char,std::char_traits<char>,std::allocator<char> >::basic_string<char,std::char_traits<char>,std::allocator<char> >
; Line 6
	push	OFFSET ??_C@_07JJNFCEND@October@
	lea	ecx, DWORD PTR _name_of_months$6[ebp+216]
	mov	BYTE PTR __$EHRec$[ebp+8], 8
	call	??0?$basic_string@DU?$char_traits@D@std@@V?$allocator@D@2@@std@@QAE@QBD@Z ; std::basic_string<char,std::char_traits<char>,std::allocator<char> >::basic_string<char,std::char_traits<char>,std::allocator<char> >
	push	OFFSET ??_C@_08HCHEGEOA@November@
	lea	ecx, DWORD PTR _name_of_months$6[ebp+240]
	mov	BYTE PTR __$EHRec$[ebp+8], 9
	call	??0?$basic_string@DU?$char_traits@D@std@@V?$allocator@D@2@@std@@QAE@QBD@Z ; std::basic_string<char,std::char_traits<char>,std::allocator<char> >::basic_string<char,std::char_traits<char>,std::allocator<char> >
	push	OFFSET ??_C@_08EDHMEBNP@December@
	lea	ecx, DWORD PTR _name_of_months$6[ebp+264]
	mov	BYTE PTR __$EHRec$[ebp+8], 10		; 0000000aH
	call	??0?$basic_string@DU?$char_traits@D@std@@V?$allocator@D@2@@std@@QAE@QBD@Z ; std::basic_string<char,std::char_traits<char>,std::allocator<char> >::basic_string<char,std::char_traits<char>,std::allocator<char> >
	mov	DWORD PTR __$EHRec$[ebp+8], 11		; 0000000bH
; Line 7
	lea	eax, DWORD PTR [esi+esi*2]
	mov	ecx, DWORD PTR __imp_?cout@std@@3V?$basic_ostream@DU?$char_traits@D@std@@@1@A
	lea	ebx, DWORD PTR _name_of_months$6[ebp+eax*8-24]
	mov	edx, OFFSET ??_C@_0N@HKCCHJIJ@Month?5name?3?5@
	call	??$?6U?$char_traits@D@std@@@std@@YAAAV?$basic_ostream@DU?$char_traits@D@std@@@0@AAV10@PBD@Z ; std::operator<<<std::char_traits<char> >
; File C:\Program Files\Microsoft Visual Studio\2022\Community\VC\Tools\MSVC\14.33.31629\include\xstring
; Line 2271
	cmp	DWORD PTR [ebx+20], 16			; 00000010H
	mov	edx, ebx
	jb	SHORT $LN29@main
; Line 2272
	mov	edx, DWORD PTR [ebx]
$LN29@main:
; File D:\Учеба\Constructure of Software\Labs\Spring semester\Lab01, 03\Lab01\Lab01\nameMonth.cpp
; Line 7
	push	OFFSET ??$endl@DU?$char_traits@D@std@@@std@@YAAAV?$basic_ostream@DU?$char_traits@D@std@@@0@AAV10@@Z ; std::endl<char,std::char_traits<char> >
; File C:\Program Files\Microsoft Visual Studio\2022\Community\VC\Tools\MSVC\14.33.31629\include\xstring
; Line 5256
	push	ecx
	push	DWORD PTR [ebx+16]
	mov	ecx, eax
	call	??$_Insert_string@DU?$char_traits@D@std@@I@std@@YAAAV?$basic_ostream@DU?$char_traits@D@std@@@0@AAV10@QBDI@Z ; std::_Insert_string<char,std::char_traits<char>,unsigned int>
	add	esp, 8
; File D:\Учеба\Constructure of Software\Labs\Spring semester\Lab01, 03\Lab01\Lab01\nameMonth.cpp
; Line 7
	mov	ecx, eax
	call	DWORD PTR __imp_??6?$basic_ostream@DU?$char_traits@D@std@@@std@@QAEAAV01@P6AAAV01@AAV01@@Z@Z
; Line 8
	push	OFFSET ??1?$basic_string@DU?$char_traits@D@std@@V?$allocator@D@2@@std@@QAE@XZ ; std::basic_string<char,std::char_traits<char>,std::allocator<char> >::~basic_string<char,std::char_traits<char>,std::allocator<char> >
	push	12					; 0000000cH
	push	24					; 00000018H
	lea	eax, DWORD PTR _name_of_months$6[ebp]
	mov	DWORD PTR __$EHRec$[ebp+8], -1
	push	eax
	call	??_M@YGXPAXIIP6EX0@Z@Z
; File D:\Учеба\Constructure of Software\Labs\Spring semester\Lab01, 03\Lab01\Lab01\Lab01.cpp
; Line 31
	push	OFFSET ??$endl@DU?$char_traits@D@std@@@std@@YAAAV?$basic_ostream@DU?$char_traits@D@std@@@0@AAV10@@Z ; std::endl<char,std::char_traits<char> >
	push	DWORD PTR _leap_flag$1$[ebp]
	mov	edx, esi
	push	ecx
	mov	ecx, DWORD PTR _day$1$[ebp]
	call	?getNumber@@YAHHHHH@Z			; getNumber
	mov	ecx, DWORD PTR __imp_?cout@std@@3V?$basic_ostream@DU?$char_traits@D@std@@@1@A
	add	esp, 8
	mov	edx, OFFSET ??_C@_0CN@JEJMBPMK@Sequence?5number?5of?5the?5day?5ente@
	push	eax
	call	??$?6U?$char_traits@D@std@@@std@@YAAAV?$basic_ostream@DU?$char_traits@D@std@@@0@AAV10@PBD@Z ; std::operator<<<std::char_traits<char> >
	mov	ecx, eax
	call	DWORD PTR __imp_??6?$basic_ostream@DU?$char_traits@D@std@@@std@@QAEAAV01@H@Z
	mov	ecx, eax
	call	DWORD PTR __imp_??6?$basic_ostream@DU?$char_traits@D@std@@@std@@QAEAAV01@P6AAAV01@AAV01@@Z@Z
; Line 32
	push	OFFSET ??$endl@DU?$char_traits@D@std@@@std@@YAAAV?$basic_ostream@DU?$char_traits@D@std@@@0@AAV10@@Z ; std::endl<char,std::char_traits<char> >
	push	ecx
	push	DWORD PTR _leap_flag$1$[ebp]
	mov	ecx, DWORD PTR _day$1$[ebp]
	mov	edx, esi
	push	edi
	call	?getBirthdayNumber@@YAHHHHH@Z		; getBirthdayNumber
	mov	ecx, DWORD PTR __imp_?cout@std@@3V?$basic_ostream@DU?$char_traits@D@std@@@1@A
	add	esp, 12					; 0000000cH
	mov	edx, OFFSET ??_C@_0CD@CBAABNC@Amount?5of?5days?5until?5my?5birthda@
	push	eax
	call	??$?6U?$char_traits@D@std@@@std@@YAAAV?$basic_ostream@DU?$char_traits@D@std@@@0@AAV10@PBD@Z ; std::operator<<<std::char_traits<char> >
	mov	ecx, eax
	call	DWORD PTR __imp_??6?$basic_ostream@DU?$char_traits@D@std@@@std@@QAEAAV01@H@Z
	mov	ecx, eax
	call	DWORD PTR __imp_??6?$basic_ostream@DU?$char_traits@D@std@@@std@@QAEAAV01@P6AAAV01@AAV01@@Z@Z
; Line 34
	mov	ecx, DWORD PTR __imp_?cout@std@@3V?$basic_ostream@DU?$char_traits@D@std@@@1@A
	mov	edx, OFFSET ??_C@_0CE@CIKBPNOL@?6Enter?5the?5sequence?5number?5of?5d@
	call	??$?6U?$char_traits@D@std@@@std@@YAAAV?$basic_ostream@DU?$char_traits@D@std@@@0@AAV10@PBD@Z ; std::operator<<<std::char_traits<char> >
; Line 35
	mov	ecx, DWORD PTR __imp_?cin@std@@3V?$basic_istream@DU?$char_traits@D@std@@@1@A
	lea	eax, DWORD PTR _event_day$[ebp]
	push	eax
	call	DWORD PTR __imp_??5?$basic_istream@DU?$char_traits@D@std@@@std@@QAEAAV01@AAH@Z
; File D:\Учеба\Constructure of Software\Labs\Spring semester\Lab01, 03\Lab01\Lab01\countTheEventData.cpp
; Line 6
	mov	eax, DWORD PTR _event_day$[ebp]
; Line 8
	xor	edx, edx
	mov	ecx, DWORD PTR _Months$[ebp]
	mov	esi, 1
	cmp	eax, ecx
	jge	SHORT $LN44@main
$LL36@main:
; Line 9
	sub	eax, ecx
	lea	edx, DWORD PTR [edx+1]
	mov	ecx, DWORD PTR _Months$[ebp+edx*4]
; Line 10
	inc	esi
	cmp	eax, ecx
	jl	SHORT $LL36@main
; Line 12
	cmp	esi, 10					; 0000000aH
	jl	SHORT $LN44@main
; Line 15
	mov	ecx, DWORD PTR __imp_?cout@std@@3V?$basic_ostream@DU?$char_traits@D@std@@@1@A
	mov	edx, OFFSET ??_C@_0BI@OCKEHPFK@The?5date?5of?5the?5event?3?5@
	push	OFFSET ??$endl@DU?$char_traits@D@std@@@std@@YAAAV?$basic_ostream@DU?$char_traits@D@std@@@0@AAV10@@Z ; std::endl<char,std::char_traits<char> >
	push	edi
	push	esi
	push	eax
	call	??$?6U?$char_traits@D@std@@@std@@YAAAV?$basic_ostream@DU?$char_traits@D@std@@@0@AAV10@PBD@Z ; std::operator<<<std::char_traits<char> >
	mov	ecx, eax
	call	DWORD PTR __imp_??6?$basic_ostream@DU?$char_traits@D@std@@@std@@QAEAAV01@H@Z
	jmp	SHORT $LN49@main
$LN44@main:
; Line 13
	push	OFFSET ??$endl@DU?$char_traits@D@std@@@std@@YAAAV?$basic_ostream@DU?$char_traits@D@std@@@0@AAV10@@Z ; std::endl<char,std::char_traits<char> >
	push	edi
	push	esi
	push	eax
	push	ecx
	mov	ecx, DWORD PTR __imp_?cout@std@@3V?$basic_ostream@DU?$char_traits@D@std@@@1@A
	mov	edx, OFFSET ??_C@_0BI@OCKEHPFK@The?5date?5of?5the?5event?3?5@
	call	??$?6U?$char_traits@D@std@@@std@@YAAAV?$basic_ostream@DU?$char_traits@D@std@@@0@AAV10@PBD@Z ; std::operator<<<std::char_traits<char> >
	add	esp, 4
	mov	ecx, eax
	call	DWORD PTR __imp_??6?$basic_ostream@DU?$char_traits@D@std@@@std@@QAEAAV01@H@Z
	push	ecx
	mov	edx, OFFSET ??_C@_01GBGANLPD@0@
	mov	ecx, eax
	call	??$?6U?$char_traits@D@std@@@std@@YAAAV?$basic_ostream@DU?$char_traits@D@std@@@0@AAV10@PBD@Z ; std::operator<<<std::char_traits<char> >
	add	esp, 4
$LN49@main:
; File D:\Учеба\Constructure of Software\Labs\Spring semester\Lab01, 03\Lab01\Lab01\Lab01.cpp
; Line 37
	mov	ecx, eax
	call	DWORD PTR __imp_??6?$basic_ostream@DU?$char_traits@D@std@@@std@@QAEAAV01@H@Z
	mov	ecx, eax
	call	DWORD PTR __imp_??6?$basic_ostream@DU?$char_traits@D@std@@@std@@QAEAAV01@H@Z
	mov	ecx, eax
	call	DWORD PTR __imp_??6?$basic_ostream@DU?$char_traits@D@std@@@std@@QAEAAV01@P6AAAV01@AAV01@@Z@Z
	push	OFFSET ??_C@_05DIAHPDGL@PAUSE@
	call	DWORD PTR __imp__system
	add	esp, 4
; Line 38
	xor	eax, eax
; Line 39
	mov	ecx, DWORD PTR __$EHRec$[ebp]
	mov	DWORD PTR fs:0, ecx
	pop	ecx
	pop	edi
	pop	esi
	pop	ebx
	mov	ecx, DWORD PTR __$ArrayPad$[ebp]
	xor	ecx, ebp
	call	@__security_check_cookie@4
	mov	esp, ebp
	pop	ebp
	ret	0
_TEXT	ENDS
;	COMDAT text$x
text$x	SEGMENT
__unwindfunclet$_main$0:
	lea	ecx, DWORD PTR _name_of_months$6[ebp]
	jmp	??1?$basic_string@DU?$char_traits@D@std@@V?$allocator@D@2@@std@@QAE@XZ ; std::basic_string<char,std::char_traits<char>,std::allocator<char> >::~basic_string<char,std::char_traits<char>,std::allocator<char> >
__unwindfunclet$_main$1:
	lea	ecx, DWORD PTR _name_of_months$6[ebp+24]
	jmp	??1?$basic_string@DU?$char_traits@D@std@@V?$allocator@D@2@@std@@QAE@XZ ; std::basic_string<char,std::char_traits<char>,std::allocator<char> >::~basic_string<char,std::char_traits<char>,std::allocator<char> >
__unwindfunclet$_main$2:
	lea	ecx, DWORD PTR _name_of_months$6[ebp+48]
	jmp	??1?$basic_string@DU?$char_traits@D@std@@V?$allocator@D@2@@std@@QAE@XZ ; std::basic_string<char,std::char_traits<char>,std::allocator<char> >::~basic_string<char,std::char_traits<char>,std::allocator<char> >
__unwindfunclet$_main$3:
	lea	ecx, DWORD PTR _name_of_months$6[ebp+72]
	jmp	??1?$basic_string@DU?$char_traits@D@std@@V?$allocator@D@2@@std@@QAE@XZ ; std::basic_string<char,std::char_traits<char>,std::allocator<char> >::~basic_string<char,std::char_traits<char>,std::allocator<char> >
__unwindfunclet$_main$4:
	lea	ecx, DWORD PTR _name_of_months$6[ebp+96]
	jmp	??1?$basic_string@DU?$char_traits@D@std@@V?$allocator@D@2@@std@@QAE@XZ ; std::basic_string<char,std::char_traits<char>,std::allocator<char> >::~basic_string<char,std::char_traits<char>,std::allocator<char> >
__unwindfunclet$_main$5:
	lea	ecx, DWORD PTR _name_of_months$6[ebp+120]
	jmp	??1?$basic_string@DU?$char_traits@D@std@@V?$allocator@D@2@@std@@QAE@XZ ; std::basic_string<char,std::char_traits<char>,std::allocator<char> >::~basic_string<char,std::char_traits<char>,std::allocator<char> >
__unwindfunclet$_main$6:
	lea	ecx, DWORD PTR _name_of_months$6[ebp+144]
	jmp	??1?$basic_string@DU?$char_traits@D@std@@V?$allocator@D@2@@std@@QAE@XZ ; std::basic_string<char,std::char_traits<char>,std::allocator<char> >::~basic_string<char,std::char_traits<char>,std::allocator<char> >
__unwindfunclet$_main$7:
	lea	ecx, DWORD PTR _name_of_months$6[ebp+168]
	jmp	??1?$basic_string@DU?$char_traits@D@std@@V?$allocator@D@2@@std@@QAE@XZ ; std::basic_string<char,std::char_traits<char>,std::allocator<char> >::~basic_string<char,std::char_traits<char>,std::allocator<char> >
__unwindfunclet$_main$8:
	lea	ecx, DWORD PTR _name_of_months$6[ebp+192]
	jmp	??1?$basic_string@DU?$char_traits@D@std@@V?$allocator@D@2@@std@@QAE@XZ ; std::basic_string<char,std::char_traits<char>,std::allocator<char> >::~basic_string<char,std::char_traits<char>,std::allocator<char> >
__unwindfunclet$_main$9:
	lea	ecx, DWORD PTR _name_of_months$6[ebp+216]
	jmp	??1?$basic_string@DU?$char_traits@D@std@@V?$allocator@D@2@@std@@QAE@XZ ; std::basic_string<char,std::char_traits<char>,std::allocator<char> >::~basic_string<char,std::char_traits<char>,std::allocator<char> >
__unwindfunclet$_main$10:
	lea	ecx, DWORD PTR _name_of_months$6[ebp+240]
	jmp	??1?$basic_string@DU?$char_traits@D@std@@V?$allocator@D@2@@std@@QAE@XZ ; std::basic_string<char,std::char_traits<char>,std::allocator<char> >::~basic_string<char,std::char_traits<char>,std::allocator<char> >
__unwindfunclet$_main$12:
	push	OFFSET ??1?$basic_string@DU?$char_traits@D@std@@V?$allocator@D@2@@std@@QAE@XZ ; std::basic_string<char,std::char_traits<char>,std::allocator<char> >::~basic_string<char,std::char_traits<char>,std::allocator<char> >
	push	12					; 0000000cH
	push	24					; 00000018H
	lea	eax, DWORD PTR _name_of_months$6[ebp]
	push	eax
	call	??_M@YGXPAXIIP6EX0@Z@Z
	ret	0
	int	3
	int	3
	int	3
	int	3
	int	3
__ehhandler$_main:
	npad	1
	npad	1
	mov	edx, DWORD PTR [esp+8]
	lea	eax, DWORD PTR [edx+12]
	mov	ecx, DWORD PTR [edx-372]
	xor	ecx, eax
	call	@__security_check_cookie@4
	mov	ecx, DWORD PTR [edx-4]
	xor	ecx, eax
	call	@__security_check_cookie@4
	mov	eax, OFFSET __ehfuncinfo$_main
	jmp	___CxxFrameHandler3
text$x	ENDS
_main	ENDP
END
